; Function Attrs: mustprogress nounwind willreturn uwtable
define noundef ptr @_ZN10duckdb_hll9sdscatsdsEPcS0_(ptr noundef captures(address, ret: address, provenance) %0, ptr noundef readonly captures(none) %1) local_unnamed_addr #11 {
  %3 = getelementptr inbounds i8, ptr %1, i64 -1
  %4 = load i8, ptr %3, align 1, !tbaa !20
  %5 = zext i8 %4 to i32
  %6 = and i32 %5, 7
  switch i32 %6, label %_ZN10duckdb_hllL6sdslenEPc.exit [
    i32 0, label %7
    i32 1, label %10
    i32 2, label %14
    i32 3, label %18
    i32 4, label %22
  ]

7:                                                ; preds = %2
  %8 = lshr i32 %5, 3
  %9 = zext nneg i32 %8 to i64
  br label %_ZN10duckdb_hllL6sdslenEPc.exit

10:                                               ; preds = %2
  %11 = getelementptr inbounds i8, ptr %1, i64 -4
  %12 = load i8, ptr %11, align 1, !tbaa !3
  %13 = zext i8 %12 to i64
  br label %_ZN10duckdb_hllL6sdslenEPc.exit

14:                                               ; preds = %2
  %15 = getelementptr inbounds i8, ptr %1, i64 -6
  %16 = load i16, ptr %15, align 1, !tbaa !8
  %17 = zext i16 %16 to i64
  br label %_ZN10duckdb_hllL6sdslenEPc.exit

18:                                               ; preds = %2
  %19 = getelementptr inbounds i8, ptr %1, i64 -10
  %20 = load i32, ptr %19, align 1, !tbaa !12
  %21 = zext i32 %20 to i64
  br label %_ZN10duckdb_hllL6sdslenEPc.exit

22:                                               ; preds = %2
  %23 = getelementptr inbounds i8, ptr %1, i64 -18
  %24 = load i64, ptr %23, align 1, !tbaa !16
  br label %_ZN10duckdb_hllL6sdslenEPc.exit

_ZN10duckdb_hllL6sdslenEPc.exit:                  ; preds = %2, %7, %10, %14, %18, %22
  %.0.i = phi i64 [ %24, %22 ], [ %21, %18 ], [ %17, %14 ], [ %13, %10 ], [ %9, %7 ], [ 0, %2 ]
  %25 = getelementptr inbounds i8, ptr %0, i64 -1
  %26 = load i8, ptr %25, align 1, !tbaa !20
  %27 = zext i8 %26 to i32
  %28 = and i32 %27, 7
  switch i32 %28, label %_ZN10duckdb_hllL6sdslenEPc.exit.i [
    i32 0, label %29
    i32 1, label %32
    i32 2, label %36
    i32 3, label %40
    i32 4, label %44
  ]

29:                                               ; preds = %_ZN10duckdb_hllL6sdslenEPc.exit
  %30 = lshr i32 %27, 3
  %31 = zext nneg i32 %30 to i64
  br label %_ZN10duckdb_hllL6sdslenEPc.exit.i

32:                                               ; preds = %_ZN10duckdb_hllL6sdslenEPc.exit
  %33 = getelementptr inbounds i8, ptr %0, i64 -4
  %34 = load i8, ptr %33, align 1, !tbaa !3
  %35 = zext i8 %34 to i64
  br label %_ZN10duckdb_hllL6sdslenEPc.exit.i

36:                                               ; preds = %_ZN10duckdb_hllL6sdslenEPc.exit
  %37 = getelementptr inbounds i8, ptr %0, i64 -6
  %38 = load i16, ptr %37, align 1, !tbaa !8
  %39 = zext i16 %38 to i64
  br label %_ZN10duckdb_hllL6sdslenEPc.exit.i

40:                                               ; preds = %_ZN10duckdb_hllL6sdslenEPc.exit
  %41 = getelementptr inbounds i8, ptr %0, i64 -10
  %42 = load i32, ptr %41, align 1, !tbaa !12
  %43 = zext i32 %42 to i64
  br label %_ZN10duckdb_hllL6sdslenEPc.exit.i

44:                                               ; preds = %_ZN10duckdb_hllL6sdslenEPc.exit
  %45 = getelementptr inbounds i8, ptr %0, i64 -18
  %46 = load i64, ptr %45, align 1, !tbaa !16
  br label %_ZN10duckdb_hllL6sdslenEPc.exit.i

_ZN10duckdb_hllL6sdslenEPc.exit.i:                ; preds = %44, %40, %36, %32, %29, %_ZN10duckdb_hllL6sdslenEPc.exit
  %.0.i.i = phi i64 [ %46, %44 ], [ %43, %40 ], [ %39, %36 ], [ %35, %32 ], [ %31, %29 ], [ 0, %_ZN10duckdb_hllL6sdslenEPc.exit ]
  %47 = tail call noundef ptr @_ZN10duckdb_hll14sdsMakeRoomForEPcm(ptr noundef nonnull %0, i64 noundef %.0.i)
  %48 = icmp eq ptr %47, null
  br i1 %48, label %_ZN10duckdb_hll9sdscatlenEPcPKvm.exit, label %49

49:                                               ; preds = %_ZN10duckdb_hllL6sdslenEPc.exit.i
  %50 = getelementptr inbounds nuw i8, ptr %47, i64 %.0.i.i
  tail call void @llvm.memcpy.p0.p0.i64(ptr nonnull align 1 %50, ptr nonnull readonly align 1 %1, i64 %.0.i, i1 false)
  %51 = add i64 %.0.i.i, %.0.i
  %52 = getelementptr inbounds i8, ptr %47, i64 -1
  %53 = load i8, ptr %52, align 1, !tbaa !20
  %54 = and i8 %53, 7
  switch i8 %54, label %_ZN10duckdb_hllL9sdssetlenEPcm.exit.i [
    i8 0, label %55
    i8 1, label %57
    i8 2, label %60
    i8 3, label %63
    i8 4, label %66
  ]

55:                                               ; preds = %49
  %.tr.i.i = trunc i64 %51 to i8
  %56 = shl i8 %.tr.i.i, 3
  store i8 %56, ptr %52, align 1, !tbaa !20
  br label %_ZN10duckdb_hllL9sdssetlenEPcm.exit.i

57:                                               ; preds = %49
  %58 = trunc i64 %51 to i8
  %59 = getelementptr inbounds i8, ptr %47, i64 -4
  store i8 %58, ptr %59, align 1, !tbaa !3
  br label %_ZN10duckdb_hllL9sdssetlenEPcm.exit.i

60:                                               ; preds = %49
  %61 = trunc i64 %51 to i16
  %62 = getelementptr inbounds i8, ptr %47, i64 -6
  store i16 %61, ptr %62, align 1, !tbaa !8
  br label %_ZN10duckdb_hllL9sdssetlenEPcm.exit.i

63:                                               ; preds = %49
  %64 = trunc i64 %51 to i32
  %65 = getelementptr inbounds i8, ptr %47, i64 -10
  store i32 %64, ptr %65, align 1, !tbaa !12
  br label %_ZN10duckdb_hllL9sdssetlenEPcm.exit.i

66:                                               ; preds = %49
  %67 = getelementptr inbounds i8, ptr %47, i64 -18
  store i64 %51, ptr %67, align 1, !tbaa !16
  br label %_ZN10duckdb_hllL9sdssetlenEPcm.exit.i

_ZN10duckdb_hllL9sdssetlenEPcm.exit.i:            ; preds = %66, %63, %60, %57, %55, %49
  %68 = getelementptr inbounds nuw i8, ptr %47, i64 %51
  store i8 0, ptr %68, align 1, !tbaa !20
  br label %_ZN10duckdb_hll9sdscatlenEPcPKvm.exit

_ZN10duckdb_hll9sdscatlenEPcPKvm.exit:            ; preds = %_ZN10duckdb_hllL6sdslenEPc.exit.i, %_ZN10duckdb_hllL9sdssetlenEPcm.exit.i
  ret ptr %47
}